; Function Attrs: mustprogress nounwind uwtable
define hidden noundef i64 @_ZN27java_lang_ref_SoftReference5clockEv() local_unnamed_addr #0 align 2 {
  %1 = load ptr, ptr getelementptr inbounds (i8, ptr @_ZN9vmClasses8_klassesE, i64 224), align 8
  %2 = getelementptr inbounds i8, ptr %1, i64 112
  %3 = load ptr, ptr %2, align 8
  %4 = icmp eq ptr %3, null
  br i1 %4, label %_ZN13InstanceKlass21static_field_base_rawEv.exit, label %5

5:                                                ; preds = %0
  %6 = load ptr, ptr @_ZN14AccessInternal15RuntimeDispatchILm548932EP7oopDescLNS_11BarrierTypeE2EE10_load_funcE, align 8
  %7 = tail call noundef ptr %6(ptr noundef nonnull %3) #19
  %8 = ptrtoint ptr %7 to i64
  br label %_ZN13InstanceKlass21static_field_base_rawEv.exit

_ZN13InstanceKlass21static_field_base_rawEv.exit: ; preds = %0, %5
  %9 = phi i64 [ %8, %5 ], [ 0, %0 ]
  %10 = load i32, ptr @_ZN27java_lang_ref_SoftReference20_static_clock_offsetE, align 4
  %11 = sext i32 %10 to i64
  %12 = add nsw i64 %9, %11
  %13 = inttoptr i64 %12 to ptr
  %14 = load i64, ptr %13, align 8
  ret i64 %14
}